target datalayout = "e-m:e-p270:32:32-p271:32:32-p272:64:64-i64:64-i128:128-f80:128-n8:16:32:64-S128"
target triple = "x86_64-pc-linux-gnu"

%class.dtNavMeshQuery = type { ptr, %"struct.dtNavMeshQuery::dtQueryData", ptr, ptr, ptr }
%"struct.dtNavMeshQuery::dtQueryData" = type { i32, ptr, float, i32, i32, [3 x float], [3 x float], ptr, i32, float }
%struct.dtNode = type { [3 x float], float, float, i32, i32 }

; Function Attrs: mustprogress uwtable
define noundef zeroext i1 @_ZNK14dtNavMeshQuery14isInClosedListEj(ptr noundef nonnull align 8 dereferenceable(104) %0, i32 noundef %1) #1 align 2 {
  %3 = alloca i1, align 1
  %4 = alloca ptr, align 8
  %5 = alloca i32, align 4
  %6 = alloca [4 x ptr], align 16
  %7 = alloca i32, align 4
  %8 = alloca i32, align 4
  store ptr %0, ptr %4, align 8
  store i32 %1, ptr %5, align 4
  %9 = load ptr, ptr %4, align 8
  %10 = getelementptr inbounds %class.dtNavMeshQuery, ptr %9, i32 0, i32 3
  %11 = load ptr, ptr %10, align 8
  %12 = icmp ne ptr %11, null
  br i1 %12, label %14, label %13

13:                                               ; preds = %2
  store i1 false, ptr %3, align 1
  br label %41

14:                                               ; preds = %2
  %15 = getelementptr inbounds %class.dtNavMeshQuery, ptr %9, i32 0, i32 3
  %16 = load ptr, ptr %15, align 8
  %17 = load i32, ptr %5, align 4
  %18 = getelementptr inbounds [4 x ptr], ptr %6, i64 0, i64 0
  %19 = call noundef i32 @_ZN10dtNodePool9findNodesEjPP6dtNodei(ptr noundef nonnull align 8 dereferenceable(36) %16, i32 noundef %17, ptr noundef %18, i32 noundef 4)
  store i32 %19, ptr %7, align 4
  store i32 0, ptr %8, align 4
  br label %20

20:                                               ; preds = %37, %14
  %21 = load i32, ptr %8, align 4
  %22 = load i32, ptr %7, align 4
  %23 = icmp slt i32 %21, %22
  br i1 %23, label %24, label %40

24:                                               ; preds = %20
  %25 = load i32, ptr %8, align 4
  %26 = sext i32 %25 to i64
  %27 = getelementptr inbounds [4 x ptr], ptr %6, i64 0, i64 %26
  %28 = load ptr, ptr %27, align 8
  %29 = getelementptr inbounds %struct.dtNode, ptr %28, i32 0, i32 3
  %30 = load i32, ptr %29, align 4
  %31 = lshr i32 %30, 26
  %32 = and i32 %31, 7
  %33 = and i32 %32, 2
  %34 = icmp ne i32 %33, 0
  br i1 %34, label %35, label %36

35:                                               ; preds = %24
  store i1 true, ptr %3, align 1
  br label %41

36:                                               ; preds = %24
  br label %37

37:                                               ; preds = %36
  %38 = load i32, ptr %8, align 4
  %39 = add nsw i32 %38, 1
  store i32 %39, ptr %8, align 4
  br label %20, !llvm.loop !72

40:                                               ; preds = %20
  store i1 false, ptr %3, align 1
  br label %41

41:                                               ; preds = %40, %35, %13
  %42 = load i1, ptr %3, align 1
  ret i1 %42
}