; Function Attrs: mustprogress uwtable
define noundef zeroext i1 @_ZNK14dtNavMeshQuery14isInClosedListEj(ptr nocapture noundef nonnull readonly align 8 dereferenceable(104) %0, i32 noundef %1) local_unnamed_addr #1 align 2 {
  %3 = alloca [4 x ptr], align 16
  %4 = getelementptr inbounds i8, ptr %0, i64 88
  %5 = load ptr, ptr %4, align 8
  %.not = icmp eq ptr %5, null
  br i1 %.not, label %.loopexit, label %6

6:                                                ; preds = %2
  %7 = call noundef i32 @_ZN10dtNodePool9findNodesEjPP6dtNodei(ptr noundef nonnull align 8 dereferenceable(36) %5, i32 noundef %1, ptr noundef nonnull %3, i32 noundef 4)
  %8 = icmp sgt i32 %7, 0
  br i1 %8, label %.lr.ph.preheader, label %.loopexit

.lr.ph.preheader:                                 ; preds = %6
  %wide.trip.count = zext nneg i32 %7 to i64
  br label %.lr.ph

.lr.ph:                                           ; preds = %.lr.ph, %.lr.ph.preheader
  %indvars.iv = phi i64 [ 0, %.lr.ph.preheader ], [ %indvars.iv.next, %.lr.ph ]
  %9 = getelementptr inbounds [4 x ptr], ptr %3, i64 0, i64 %indvars.iv
  %10 = load ptr, ptr %9, align 8
  %11 = getelementptr inbounds i8, ptr %10, i64 20
  %12 = load i32, ptr %11, align 4
  %13 = and i32 %12, 134217728
  %.not8.not = icmp ne i32 %13, 0
  %indvars.iv.next = add nuw nsw i64 %indvars.iv, 1
  %exitcond.not = icmp eq i64 %indvars.iv.next, %wide.trip.count
  %or.cond = select i1 %.not8.not, i1 true, i1 %exitcond.not
  br i1 %or.cond, label %.loopexit, label %.lr.ph, !llvm.loop !74

.loopexit:                                        ; preds = %.lr.ph, %6, %2
  %.06 = phi i1 [ false, %2 ], [ false, %6 ], [ %.not8.not, %.lr.ph ]
  ret i1 %.06
}